target datalayout = "e-m:e-p270:32:32-p271:32:32-p272:64:64-i64:64-i128:128-f80:128-n8:16:32:64-S128"
target triple = "x86_64-pc-linux-gnu"

%"struct.rocksdb::Cache::AsyncLookupHandle" = type <{ %"class.rocksdb::Slice", ptr, ptr, i32, [4 x i8], ptr, ptr, ptr, ptr, i8, i8, [6 x i8] }>
%"class.rocksdb::Slice" = type { ptr, i64 }

; Function Attrs: mustprogress uwtable
define void @_ZN7rocksdb5Cache16StartAsyncLookupERNS0_17AsyncLookupHandleE(ptr noundef nonnull align 8 dereferenceable(80) %0, ptr noundef nonnull align 8 dereferenceable(74) %1) unnamed_addr #1 align 2 {
  %3 = alloca ptr, align 8
  %4 = alloca ptr, align 8
  store ptr %0, ptr %3, align 8, !tbaa !169
  store ptr %1, ptr %4, align 8, !tbaa !159
  %5 = load ptr, ptr %3, align 8
  %6 = load ptr, ptr %4, align 8, !tbaa !159
  %7 = getelementptr inbounds nuw %"struct.rocksdb::Cache::AsyncLookupHandle", ptr %6, i32 0, i32 9
  store i8 0, ptr %7, align 8, !tbaa !171
  %8 = load ptr, ptr %4, align 8, !tbaa !159
  %9 = getelementptr inbounds nuw %"struct.rocksdb::Cache::AsyncLookupHandle", ptr %8, i32 0, i32 0
  %10 = load ptr, ptr %4, align 8, !tbaa !159
  %11 = getelementptr inbounds nuw %"struct.rocksdb::Cache::AsyncLookupHandle", ptr %10, i32 0, i32 1
  %12 = load ptr, ptr %11, align 8, !tbaa !172
  %13 = load ptr, ptr %4, align 8, !tbaa !159
  %14 = getelementptr inbounds nuw %"struct.rocksdb::Cache::AsyncLookupHandle", ptr %13, i32 0, i32 2
  %15 = load ptr, ptr %14, align 8, !tbaa !173
  %16 = load ptr, ptr %4, align 8, !tbaa !159
  %17 = getelementptr inbounds nuw %"struct.rocksdb::Cache::AsyncLookupHandle", ptr %16, i32 0, i32 3
  %18 = load i32, ptr %17, align 8, !tbaa !174
  %19 = load ptr, ptr %4, align 8, !tbaa !159
  %20 = getelementptr inbounds nuw %"struct.rocksdb::Cache::AsyncLookupHandle", ptr %19, i32 0, i32 5
  %21 = load ptr, ptr %20, align 8, !tbaa !175
  %22 = load ptr, ptr %5, align 8, !tbaa !112
  %23 = getelementptr inbounds ptr, ptr %22, i64 21
  %24 = load ptr, ptr %23, align 8
  %25 = call noundef ptr %24(ptr noundef nonnull align 8 dereferenceable(80) %5, ptr noundef nonnull align 8 dereferenceable(16) %9, ptr noundef %12, ptr noundef %15, i32 noundef %18, ptr noundef %21)
  %26 = load ptr, ptr %4, align 8, !tbaa !159
  %27 = getelementptr inbounds nuw %"struct.rocksdb::Cache::AsyncLookupHandle", ptr %26, i32 0, i32 6
  store ptr %25, ptr %27, align 8, !tbaa !168
  ret void
}