; Function Attrs: mustprogress uwtable
define void @_ZN7rocksdb5Cache16StartAsyncLookupERNS0_17AsyncLookupHandleE(ptr noundef nonnull align 8 dereferenceable(80) %0, ptr noundef nonnull align 8 dereferenceable(74) initializes((72, 73)) %1) unnamed_addr #1 align 2 {
  %3 = getelementptr inbounds nuw i8, ptr %1, i64 72
  store i8 0, ptr %3, align 8, !tbaa !182
  %4 = getelementptr inbounds nuw i8, ptr %1, i64 16
  %5 = load ptr, ptr %4, align 8, !tbaa !183
  %6 = getelementptr inbounds nuw i8, ptr %1, i64 24
  %7 = load ptr, ptr %6, align 8, !tbaa !184
  %8 = getelementptr inbounds nuw i8, ptr %1, i64 32
  %9 = load i32, ptr %8, align 8, !tbaa !185
  %10 = getelementptr inbounds nuw i8, ptr %1, i64 40
  %11 = load ptr, ptr %10, align 8, !tbaa !186
  %12 = load ptr, ptr %0, align 8, !tbaa !94
  %13 = getelementptr inbounds nuw i8, ptr %12, i64 168
  %14 = load ptr, ptr %13, align 8
  %15 = tail call noundef ptr %14(ptr noundef nonnull align 8 dereferenceable(80) %0, ptr noundef nonnull align 8 dereferenceable(16) %1, ptr noundef %5, ptr noundef %7, i32 noundef %9, ptr noundef %11)
  %16 = getelementptr inbounds nuw i8, ptr %1, i64 48
  store ptr %15, ptr %16, align 8, !tbaa !181
  ret void
}